target datalayout = "e-m:e-p270:32:32-p271:32:32-p272:64:64-i64:64-i128:128-f80:128-n8:16:32:64-S128"
target triple = "x86_64-pc-linux-gnu"

%"class.metaspace::VirtualSpaceList" = type { ptr, ptr, ptr, %"class.metaspace::AbstractCounter", i8, ptr, %"class.metaspace::AbstractCounter.0", %"class.metaspace::AbstractCounter.0" }
%"class.metaspace::AbstractCounter" = type { i32 }
%"class.metaspace::AbstractCounter.0" = type { i64 }
%class.ReservedSpace = type <{ ptr, i64, i64, i64, i64, i8, [3 x i8], i32, i8, [7 x i8] }>
%"class.metaspace::VirtualSpaceNode" = type { ptr, %class.ReservedSpace, i8, ptr, i64, i64, %"class.metaspace::CommitMask", %"class.metaspace::RootChunkAreaLUT", ptr, ptr, ptr }
%"class.metaspace::CommitMask" = type { %class.CHeapBitMap.base, ptr, i64, i64 }
%class.CHeapBitMap.base = type <{ %class.GrowableBitMap, i8 }>
%class.GrowableBitMap = type { %class.BitMap }
%class.BitMap = type { ptr, i64 }
%"class.metaspace::RootChunkAreaLUT" = type { ptr, i32, ptr }
%class.MutexLocker = type { %class.MutexLockerImpl }
%class.MutexLockerImpl = type { ptr }

@Metaspace_lock = external global ptr, align 8
@.str.5 = private unnamed_addr constant [8 x i8] c"vsl %s:\00", align 1
@.str.6 = private unnamed_addr constant [13 x i8] c"- node #%d: \00", align 1
@.str.7 = private unnamed_addr constant [59 x i8] c"- total %d nodes, %lu reserved words, %lu committed words.\00", align 1

; Function Attrs: mustprogress nounwind uwtable
define linkonce_odr hidden void @_ZN15MutexLockerImplD2Ev(ptr noundef nonnull align 8 dereferenceable(8) %0) unnamed_addr #1 comdat align 2 {
  %2 = alloca ptr, align 8
  store ptr %0, ptr %2, align 8
  %3 = load ptr, ptr %2, align 8
  %4 = getelementptr inbounds %class.MutexLockerImpl, ptr %3, i32 0, i32 0
  %5 = load ptr, ptr %4, align 8
  %6 = icmp ne ptr %5, null
  br i1 %6, label %7, label %10

7:                                                ; preds = %1
  %8 = getelementptr inbounds %class.MutexLockerImpl, ptr %3, i32 0, i32 0
  %9 = load ptr, ptr %8, align 8
  call void @_ZN5Mutex6unlockEv(ptr noundef nonnull align 8 dereferenceable(104) %9)
  br label %10

10:                                               ; preds = %7, %1
  ret void
}

; Function Attrs: mustprogress nounwind uwtable
define linkonce_odr hidden noundef i64 @_ZNK9metaspace15AbstractCounterImE3getEv(ptr noundef nonnull align 8 dereferenceable(8) %0) #1 comdat align 2 {
  %2 = alloca ptr, align 8
  store ptr %0, ptr %2, align 8
  %3 = load ptr, ptr %2, align 8
  %4 = getelementptr inbounds %"class.metaspace::AbstractCounter.0", ptr %3, i32 0, i32 0
  %5 = load i64, ptr %4, align 8
  ret i64 %5
}

; Function Attrs: mustprogress nounwind uwtable
define linkonce_odr hidden void @_ZN15MutexLockerImplC2EP5MutexNS0_18SafepointCheckFlagE(ptr noundef nonnull align 8 dereferenceable(8) %0, ptr noundef %1, i32 noundef %2) unnamed_addr #1 comdat align 2 {
  %4 = alloca ptr, align 8
  %5 = alloca ptr, align 8
  %6 = alloca i32, align 4
  %7 = alloca i8, align 1
  store ptr %0, ptr %4, align 8
  store ptr %1, ptr %5, align 8
  store i32 %2, ptr %6, align 4
  %8 = load ptr, ptr %4, align 8
  %9 = getelementptr inbounds %class.MutexLockerImpl, ptr %8, i32 0, i32 0
  %10 = load ptr, ptr %5, align 8
  store ptr %10, ptr %9, align 8
  %11 = load i32, ptr %6, align 4
  %12 = icmp eq i32 %11, 1
  %13 = zext i1 %12 to i8
  store i8 %13, ptr %7, align 1
  %14 = getelementptr inbounds %class.MutexLockerImpl, ptr %8, i32 0, i32 0
  %15 = load ptr, ptr %14, align 8
  %16 = icmp ne ptr %15, null
  br i1 %16, label %17, label %27

17:                                               ; preds = %3
  %18 = load i8, ptr %7, align 1
  %19 = trunc i8 %18 to i1
  br i1 %19, label %20, label %23

20:                                               ; preds = %17
  %21 = getelementptr inbounds %class.MutexLockerImpl, ptr %8, i32 0, i32 0
  %22 = load ptr, ptr %21, align 8
  call void @_ZN5Mutex28lock_without_safepoint_checkEv(ptr noundef nonnull align 8 dereferenceable(104) %22)
  br label %26

23:                                               ; preds = %17
  %24 = getelementptr inbounds %class.MutexLockerImpl, ptr %8, i32 0, i32 0
  %25 = load ptr, ptr %24, align 8
  call void @_ZN5Mutex4lockEv(ptr noundef nonnull align 8 dereferenceable(104) %25)
  br label %26

26:                                               ; preds = %23, %20
  br label %27

27:                                               ; preds = %26, %3
  ret void
}

; Function Attrs: mustprogress nounwind uwtable
define linkonce_odr hidden void @_ZN11MutexLockerD2Ev(ptr noundef nonnull align 8 dereferenceable(8) %0) unnamed_addr #1 comdat align 2 {
  %2 = alloca ptr, align 8
  store ptr %0, ptr %2, align 8
  %3 = load ptr, ptr %2, align 8
  call void @_ZN15MutexLockerImplD2Ev(ptr noundef nonnull align 8 dereferenceable(8) %3) #6
  ret void
}

; Function Attrs: mustprogress nounwind uwtable
define linkonce_odr hidden noundef i64 @_ZNK9metaspace16VirtualSpaceList15committed_wordsEv(ptr noundef nonnull align 8 dereferenceable(56) %0) #1 comdat align 2 {
  %2 = alloca ptr, align 8
  store ptr %0, ptr %2, align 8
  %3 = load ptr, ptr %2, align 8
  %4 = getelementptr inbounds %"class.metaspace::VirtualSpaceList", ptr %3, i32 0, i32 7
  %5 = call noundef i64 @_ZNK9metaspace15AbstractCounterImE3getEv(ptr noundef nonnull align 8 dereferenceable(8) %4)
  ret i64 %5
}

; Function Attrs: mustprogress nounwind uwtable
define linkonce_odr hidden noundef i64 @_ZNK9metaspace16VirtualSpaceList14reserved_wordsEv(ptr noundef nonnull align 8 dereferenceable(56) %0) #1 comdat align 2 {
  %2 = alloca ptr, align 8
  store ptr %0, ptr %2, align 8
  %3 = load ptr, ptr %2, align 8
  %4 = getelementptr inbounds %"class.metaspace::VirtualSpaceList", ptr %3, i32 0, i32 6
  %5 = call noundef i64 @_ZNK9metaspace15AbstractCounterImE3getEv(ptr noundef nonnull align 8 dereferenceable(8) %4)
  ret i64 %5
}

; Function Attrs: mustprogress nounwind uwtable
define linkonce_odr hidden noundef ptr @_ZNK9metaspace16VirtualSpaceNode4nextEv(ptr noundef nonnull align 8 dereferenceable(192) %0) #1 comdat align 2 {
  %2 = alloca ptr, align 8
  store ptr %0, ptr %2, align 8
  %3 = load ptr, ptr %2, align 8
  %4 = getelementptr inbounds %"class.metaspace::VirtualSpaceNode", ptr %3, i32 0, i32 0
  %5 = load ptr, ptr %4, align 8
  ret ptr %5
}

; Function Attrs: mustprogress nounwind uwtable
define linkonce_odr hidden void @_ZN11MutexLockerC2EP5MutexNS0_18SafepointCheckFlagE(ptr noundef nonnull align 8 dereferenceable(8) %0, ptr noundef %1, i32 noundef %2) unnamed_addr #1 comdat align 2 {
  %4 = alloca ptr, align 8
  %5 = alloca ptr, align 8
  %6 = alloca i32, align 4
  store ptr %0, ptr %4, align 8
  store ptr %1, ptr %5, align 8
  store i32 %2, ptr %6, align 4
  %7 = load ptr, ptr %4, align 8
  %8 = load ptr, ptr %5, align 8
  %9 = load i32, ptr %6, align 4
  call void @_ZN15MutexLockerImplC2EP5MutexNS0_18SafepointCheckFlagE(ptr noundef nonnull align 8 dereferenceable(8) %7, ptr noundef %8, i32 noundef %9)
  ret void
}

; Function Attrs: mustprogress nounwind uwtable
define hidden void @_ZNK9metaspace16VirtualSpaceList8print_onEP12outputStream(ptr noundef nonnull align 8 dereferenceable(56) %0, ptr noundef %1) #1 align 2 {
  %3 = alloca ptr, align 8
  %4 = alloca ptr, align 8
  %5 = alloca %class.MutexLocker, align 8
  %6 = alloca ptr, align 8
  %7 = alloca i32, align 4
  store ptr %0, ptr %3, align 8
  store ptr %1, ptr %4, align 8
  %8 = load ptr, ptr %3, align 8
  %9 = load ptr, ptr @Metaspace_lock, align 8
  call void @_ZN11MutexLockerC2EP5MutexNS0_18SafepointCheckFlagE(ptr noundef nonnull align 8 dereferenceable(8) %5, ptr noundef %9, i32 noundef 1)
  %10 = load ptr, ptr %4, align 8
  %11 = getelementptr inbounds %"class.metaspace::VirtualSpaceList", ptr %8, i32 0, i32 1
  %12 = load ptr, ptr %11, align 8
  call void (ptr, ptr, ...) @_ZN12outputStream8print_crEPKcz(ptr noundef nonnull align 8 dereferenceable(56) %10, ptr noundef @.str.5, ptr noundef %12)
  %13 = getelementptr inbounds %"class.metaspace::VirtualSpaceList", ptr %8, i32 0, i32 2
  %14 = load volatile ptr, ptr %13, align 8
  store ptr %14, ptr %6, align 8
  store i32 0, ptr %7, align 4
  br label %15

15:                                               ; preds = %18, %2
  %16 = load ptr, ptr %6, align 8
  %17 = icmp ne ptr %16, null
  br i1 %17, label %18, label %27

18:                                               ; preds = %15
  %19 = load ptr, ptr %4, align 8
  %20 = load i32, ptr %7, align 4
  call void (ptr, ptr, ...) @_ZN12outputStream5printEPKcz(ptr noundef nonnull align 8 dereferenceable(56) %19, ptr noundef @.str.6, i32 noundef %20)
  %21 = load ptr, ptr %6, align 8
  %22 = load ptr, ptr %4, align 8
  call void @_ZNK9metaspace16VirtualSpaceNode8print_onEP12outputStream(ptr noundef nonnull align 8 dereferenceable(192) %21, ptr noundef %22)
  %23 = load ptr, ptr %6, align 8
  %24 = call noundef ptr @_ZNK9metaspace16VirtualSpaceNode4nextEv(ptr noundef nonnull align 8 dereferenceable(192) %23)
  store ptr %24, ptr %6, align 8
  %25 = load i32, ptr %7, align 4
  %26 = add nsw i32 %25, 1
  store i32 %26, ptr %7, align 4
  br label %15, !llvm.loop !8

27:                                               ; preds = %15
  %28 = load ptr, ptr %4, align 8
  %29 = load i32, ptr %7, align 4
  %30 = call noundef i64 @_ZNK9metaspace16VirtualSpaceList14reserved_wordsEv(ptr noundef nonnull align 8 dereferenceable(56) %8)
  %31 = call noundef i64 @_ZNK9metaspace16VirtualSpaceList15committed_wordsEv(ptr noundef nonnull align 8 dereferenceable(56) %8)
  call void (ptr, ptr, ...) @_ZN12outputStream8print_crEPKcz(ptr noundef nonnull align 8 dereferenceable(56) %28, ptr noundef @.str.7, i32 noundef %29, i64 noundef %30, i64 noundef %31)
  call void @_ZN11MutexLockerD2Ev(ptr noundef nonnull align 8 dereferenceable(8) %5) #6
  ret void
}