; Function Attrs: mustprogress nounwind uwtable
define hidden void @_ZNK9metaspace16VirtualSpaceList8print_onEP12outputStream(ptr noundef nonnull align 8 dereferenceable(56) %0, ptr noundef %1) local_unnamed_addr #1 align 2 {
  %3 = load ptr, ptr @Metaspace_lock, align 8
  %.not.i.i = icmp eq ptr %3, null
  br i1 %.not.i.i, label %_ZN11MutexLockerC2EP5MutexNS0_18SafepointCheckFlagE.exit, label %4

4:                                                ; preds = %2
  tail call void @_ZN5Mutex28lock_without_safepoint_checkEv(ptr noundef nonnull align 8 dereferenceable(104) %3) #8
  br label %_ZN11MutexLockerC2EP5MutexNS0_18SafepointCheckFlagE.exit

_ZN11MutexLockerC2EP5MutexNS0_18SafepointCheckFlagE.exit: ; preds = %2, %4
  %5 = getelementptr inbounds i8, ptr %0, i64 8
  %6 = load ptr, ptr %5, align 8
  tail call void (ptr, ptr, ...) @_ZN12outputStream8print_crEPKcz(ptr noundef nonnull align 8 dereferenceable(56) %1, ptr noundef nonnull @.str.5, ptr noundef %6) #8
  %7 = getelementptr inbounds i8, ptr %0, i64 16
  %8 = load volatile ptr, ptr %7, align 8
  %.not12 = icmp eq ptr %8, null
  br i1 %.not12, label %._crit_edge, label %.lr.ph

.lr.ph:                                           ; preds = %_ZN11MutexLockerC2EP5MutexNS0_18SafepointCheckFlagE.exit, %.lr.ph
  %.014 = phi i32 [ %10, %.lr.ph ], [ 0, %_ZN11MutexLockerC2EP5MutexNS0_18SafepointCheckFlagE.exit ]
  %.01013 = phi ptr [ %9, %.lr.ph ], [ %8, %_ZN11MutexLockerC2EP5MutexNS0_18SafepointCheckFlagE.exit ]
  tail call void (ptr, ptr, ...) @_ZN12outputStream5printEPKcz(ptr noundef nonnull align 8 dereferenceable(56) %1, ptr noundef nonnull @.str.6, i32 noundef %.014) #8
  tail call void @_ZNK9metaspace16VirtualSpaceNode8print_onEP12outputStream(ptr noundef nonnull align 8 dereferenceable(192) %.01013, ptr noundef nonnull %1) #8
  %9 = load ptr, ptr %.01013, align 8
  %10 = add nuw nsw i32 %.014, 1
  %.not = icmp eq ptr %9, null
  br i1 %.not, label %._crit_edge, label %.lr.ph, !llvm.loop !9

._crit_edge:                                      ; preds = %.lr.ph, %_ZN11MutexLockerC2EP5MutexNS0_18SafepointCheckFlagE.exit
  %.0.lcssa = phi i32 [ 0, %_ZN11MutexLockerC2EP5MutexNS0_18SafepointCheckFlagE.exit ], [ %10, %.lr.ph ]
  %11 = getelementptr inbounds i8, ptr %0, i64 40
  %12 = load i64, ptr %11, align 8
  %13 = getelementptr inbounds i8, ptr %0, i64 48
  %14 = load i64, ptr %13, align 8
  tail call void (ptr, ptr, ...) @_ZN12outputStream8print_crEPKcz(ptr noundef nonnull align 8 dereferenceable(56) %1, ptr noundef nonnull @.str.7, i32 noundef %.0.lcssa, i64 noundef %12, i64 noundef %14) #8
  br i1 %.not.i.i, label %_ZN11MutexLockerD2Ev.exit, label %15

15:                                               ; preds = %._crit_edge
  tail call void @_ZN5Mutex6unlockEv(ptr noundef nonnull align 8 dereferenceable(104) %3) #8
  br label %_ZN11MutexLockerD2Ev.exit

_ZN11MutexLockerD2Ev.exit:                        ; preds = %._crit_edge, %15
  ret void
}